Certificate:
    Data:
        Version: 3 (0x2)
        Serial Number:
            4c:b9:f1:bd:9d:c2:8b:42:b8:99:e2:6f:e0:0b:15:a5
        Signature Algorithm: sha256WithRSAEncryption
        Issuer: CN=ca.ccdc23af.cyber.uml.edu
        Validity
            Not Before: Nov  6 00:23:38 2022 GMT
            Not After : Oct 21 00:23:38 2025 GMT
        Subject: CN=ccdc23af.cyber.uml.edu
        Subject Public Key Info:
            Public Key Algorithm: rsaEncryption
                RSA Public-Key: (2048 bit)
                Modulus:
                    00:c0:75:41:18:d4:cf:48:49:04:6b:1a:9e:0b:28:
                    c9:58:d9:66:27:6e:2d:5b:38:9f:1c:58:b4:4f:db:
                    1c:6b:16:c6:f8:29:31:95:2b:bf:a8:29:89:80:28:
                    28:2c:fd:e3:73:f7:8f:40:46:15:d0:d1:bf:dc:c6:
                    17:2e:7b:13:1c:fc:ef:75:ce:af:ec:a8:3e:4b:4d:
                    0f:14:e2:5e:46:83:6e:02:d3:70:5a:27:8e:1f:73:
                    7f:e4:41:de:2c:91:b6:75:e7:e5:2b:3f:87:0d:c4:
                    6e:65:e0:e5:5d:06:c3:f7:05:f5:45:02:e7:85:6e:
                    02:f6:5e:5c:4a:75:35:1b:21:48:97:d9:38:ae:42:
                    81:39:fc:c4:eb:31:9b:de:34:6d:81:48:4b:ed:77:
                    0e:24:f1:25:68:85:83:9d:21:99:bf:e7:f7:90:1b:
                    74:8c:7f:cd:a6:63:7a:27:10:a2:18:29:e2:8e:96:
                    da:03:c1:57:dc:21:ac:ff:6d:c1:10:e3:fb:d6:26:
                    c1:be:4f:6a:d8:9b:2f:83:15:80:36:5c:3f:8c:fe:
                    47:bd:00:8b:e4:57:9f:e5:cb:95:5c:4a:1b:07:75:
                    5f:1f:f0:42:48:fc:b5:2a:4f:04:5b:ad:cb:ff:20:
                    42:ea:c3:a0:1c:a7:55:fc:af:e8:af:22:3e:8d:0f:
                    6c:bd
                Exponent: 65537 (0x10001)
        X509v3 extensions:
            X509v3 Basic Constraints: 
                CA:FALSE
            X509v3 Subject Key Identifier: 
                11:8C:D3:10:83:25:E8:5A:16:90:69:43:2D:A6:70:0B:DF:CE:1F:14
            X509v3 Authority Key Identifier: 
                keyid:B0:39:20:15:9F:88:9C:03:7E:4E:99:F9:83:A1:B5:6C:73:8F:4F:03
                DirName:/CN=ca.ccdc23af.cyber.uml.edu
                serial:42:5A:53:A7:8F:74:5E:B4:B4:50:DF:99:4A:4C:61:08:F2:9F:70:DB

            X509v3 Extended Key Usage: 
                TLS Web Server Authentication
            X509v3 Key Usage: 
                Digital Signature, Key Encipherment
            X509v3 Subject Alternative Name: 
                DNS:ccdc23af.cyber.uml.edu
    Signature Algorithm: sha256WithRSAEncryption
         b2:21:23:5c:9f:e3:fc:53:75:47:de:36:4e:33:33:e3:db:4d:
         1b:56:c0:32:da:57:d7:13:6e:97:84:b3:a8:fe:38:d7:28:52:
         cf:a1:a1:8e:69:3a:25:d4:b7:10:35:ac:f2:ef:c6:10:99:71:
         a9:1a:16:45:6c:80:f6:72:43:fb:a8:9c:c0:2c:1f:cb:1e:0f:
         34:68:22:01:5f:4f:20:e3:1a:ac:70:3e:07:5b:3f:2f:51:c6:
         25:77:5c:27:e1:d2:73:99:f5:0b:90:22:bc:22:9a:a3:32:5b:
         84:2d:6b:8e:e5:4a:97:df:3c:c9:ec:c7:26:d0:c4:49:6c:0d:
         87:51:e0:bc:f7:89:a9:57:0e:22:c7:ab:8f:84:f9:08:32:2a:
         af:25:fa:44:8f:30:03:85:02:b7:12:01:1f:cc:ea:35:a1:bc:
         68:ea:a0:3d:71:8d:b8:46:4d:17:64:d0:3f:6d:69:da:3a:10:
         e1:83:82:d7:0b:95:cc:3c:75:70:02:64:0d:67:12:d6:1a:b2:
         88:56:15:b5:e2:7a:80:bb:dc:a7:5a:0d:49:3c:05:bc:e5:c7:
         3c:ef:1d:bd:9e:33:78:d5:9b:04:26:21:b3:88:e7:98:8f:00:
         98:a9:86:d5:f2:3f:ab:4a:cc:28:a1:0c:68:92:d0:7f:ce:83:
         9a:3b:0b:fb
-----BEGIN CERTIFICATE-----
MIIDozCCAougAwIBAgIQTLnxvZ3Ci0K4meJv4AsVpTANBgkqhkiG9w0BAQsFADAk
MSIwIAYDVQQDDBljYS5jY2RjMjNhZi5jeWJlci51bWwuZWR1MB4XDTIyMTEwNjAw
MjMzOFoXDTI1MTAyMTAwMjMzOFowITEfMB0GA1UEAwwWY2NkYzIzYWYuY3liZXIu
dW1sLmVkdTCCASIwDQYJKoZIhvcNAQEBBQADggEPADCCAQoCggEBAMB1QRjUz0hJ
BGsangsoyVjZZiduLVs4nxxYtE/bHGsWxvgpMZUrv6gpiYAoKCz943P3j0BGFdDR
v9zGFy57Exz873XOr+yoPktNDxTiXkaDbgLTcFonjh9zf+RB3iyRtnXn5Ss/hw3E
bmXg5V0Gw/cF9UUC54VuAvZeXEp1NRshSJfZOK5CgTn8xOsxm940bYFIS+13DiTx
JWiFg50hmb/n95AbdIx/zaZjeicQohgp4o6W2gPBV9whrP9twRDj+9Ymwb5Patib
L4MVgDZcP4z+R70Ai+RXn+XLlVxKGwd1Xx/wQkj8tSpPBFuty/8gQurDoBynVfyv
6K8iPo0PbL0CAwEAAaOB0zCB0DAJBgNVHRMEAjAAMB0GA1UdDgQWBBQRjNMQgyXo
WhaQaUMtpnAL384fFDBfBgNVHSMEWDBWgBSwOSAVn4icA35OmfmDobVsc49PA6Eo
pCYwJDEiMCAGA1UEAwwZY2EuY2NkYzIzYWYuY3liZXIudW1sLmVkdYIUQlpTp490
XrS0UN+ZSkxhCPKfcNswEwYDVR0lBAwwCgYIKwYBBQUHAwEwCwYDVR0PBAQDAgWg
MCEGA1UdEQQaMBiCFmNjZGMyM2FmLmN5YmVyLnVtbC5lZHUwDQYJKoZIhvcNAQEL
BQADggEBALIhI1yf4/xTdUfeNk4zM+PbTRtWwDLaV9cTbpeEs6j+ONcoUs+hoY5p
OiXUtxA1rPLvxhCZcakaFkVsgPZyQ/uonMAsH8seDzRoIgFfTyDjGqxwPgdbPy9R
xiV3XCfh0nOZ9QuQIrwimqMyW4Qta47lSpffPMnsxybQxElsDYdR4Lz3ialXDiLH
q4+E+QgyKq8l+kSPMAOFArcSAR/M6jWhvGjqoD1xjbhGTRdk0D9tado6EOGDgtcL
lcw8dXACZA1nEtYasohWFbXieoC73KdaDUk8BbzlxzzvHb2eM3jVmwQmIbOI55iP
AJiphtXyP6tKzCihDGiS0H/Og5o7C/s=
-----END CERTIFICATE-----
